; Function Attrs: nounwind uwtable
define ptr @l_Array_anyMUnsafe_any___at_Lean_LocalContext_allM___spec__4___rarg___lambda__1(ptr noundef %0, i8 noundef zeroext %1) local_unnamed_addr #2 {
  %3 = icmp eq i8 %1, 0
  %4 = getelementptr inbounds nuw i8, ptr %0, i64 8
  %5 = load ptr, ptr %4, align 8, !tbaa !9
  %6 = ptrtoint ptr %5 to i64
  %7 = and i64 %6, 1
  %.not45 = icmp eq i64 %7, 0
  br i1 %3, label %8, label %42

8:                                                ; preds = %2
  br i1 %.not45, label %9, label %lean_inc.exit26

9:                                                ; preds = %8
  %.val.i = load i32, ptr %5, align 4, !tbaa !4
  %10 = icmp sgt i32 %.val.i, 0
  br i1 %10, label %11, label %13, !prof !11

11:                                               ; preds = %9
  %12 = add nuw i32 %.val.i, 1
  store i32 %12, ptr %5, align 4, !tbaa !4
  br label %lean_inc.exit26

13:                                               ; preds = %9
  %.not.i33 = icmp eq i32 %.val.i, 0
  br i1 %.not.i33, label %lean_inc.exit26, label %14

14:                                               ; preds = %13
  tail call void @lean_inc_ref_cold(ptr noundef nonnull %5) #8
  br label %lean_inc.exit26

lean_inc.exit26:                                  ; preds = %14, %13, %11, %8
  %15 = ptrtoint ptr %0 to i64
  %16 = and i64 %15, 1
  %.not46 = icmp eq i64 %16, 0
  br i1 %.not46, label %17, label %lean_dec.exit23

17:                                               ; preds = %lean_inc.exit26
  %18 = load i32, ptr %0, align 4, !tbaa !4
  %19 = icmp sgt i32 %18, 1
  br i1 %19, label %20, label %22, !prof !11

20:                                               ; preds = %17
  %21 = add nsw i32 %18, -1
  store i32 %21, ptr %0, align 4, !tbaa !4
  br label %lean_dec.exit23

22:                                               ; preds = %17
  %.not.i = icmp eq i32 %18, 0
  br i1 %.not.i, label %lean_dec.exit23, label %23

23:                                               ; preds = %22
  tail call void @lean_dec_ref_cold(ptr noundef nonnull %0) #8
  br label %lean_dec.exit23

lean_dec.exit23:                                  ; preds = %23, %22, %20, %lean_inc.exit26
  %24 = getelementptr inbounds nuw i8, ptr %5, i64 16
  %25 = load ptr, ptr %24, align 8, !tbaa !9
  %26 = ptrtoint ptr %25 to i64
  %27 = and i64 %26, 1
  %.not47 = icmp eq i64 %27, 0
  br i1 %.not47, label %28, label %lean_inc.exit25

28:                                               ; preds = %lean_dec.exit23
  %.val.i34 = load i32, ptr %25, align 4, !tbaa !4
  %29 = icmp sgt i32 %.val.i34, 0
  br i1 %29, label %30, label %32, !prof !11

30:                                               ; preds = %28
  %31 = add nuw i32 %.val.i34, 1
  store i32 %31, ptr %25, align 4, !tbaa !4
  br label %lean_inc.exit25

32:                                               ; preds = %28
  %.not.i35 = icmp eq i32 %.val.i34, 0
  br i1 %.not.i35, label %lean_inc.exit25, label %33

33:                                               ; preds = %32
  tail call void @lean_inc_ref_cold(ptr noundef nonnull %25) #8
  br label %lean_inc.exit25

lean_inc.exit25:                                  ; preds = %33, %32, %30, %lean_dec.exit23
  br i1 %.not45, label %34, label %lean_dec.exit22

34:                                               ; preds = %lean_inc.exit25
  %35 = load i32, ptr %5, align 4, !tbaa !4
  %36 = icmp sgt i32 %35, 1
  br i1 %36, label %37, label %39, !prof !11

37:                                               ; preds = %34
  %38 = add nsw i32 %35, -1
  store i32 %38, ptr %5, align 4, !tbaa !4
  br label %lean_dec.exit22

39:                                               ; preds = %34
  %.not.i27 = icmp eq i32 %35, 0
  br i1 %.not.i27, label %lean_dec.exit22, label %40

40:                                               ; preds = %39
  tail call void @lean_dec_ref_cold(ptr noundef nonnull %5) #8
  br label %lean_dec.exit22

lean_dec.exit22:                                  ; preds = %40, %39, %37, %lean_inc.exit25
  %41 = tail call ptr @lean_apply_2(ptr noundef %25, ptr noundef nonnull inttoptr (i64 1 to ptr), ptr noundef nonnull inttoptr (i64 3 to ptr)) #8
  br label %76

42:                                               ; preds = %2
  br i1 %.not45, label %43, label %lean_inc.exit24

43:                                               ; preds = %42
  %.val.i37 = load i32, ptr %5, align 4, !tbaa !4
  %44 = icmp sgt i32 %.val.i37, 0
  br i1 %44, label %45, label %47, !prof !11

45:                                               ; preds = %43
  %46 = add nuw i32 %.val.i37, 1
  store i32 %46, ptr %5, align 4, !tbaa !4
  br label %lean_inc.exit24

47:                                               ; preds = %43
  %.not.i38 = icmp eq i32 %.val.i37, 0
  br i1 %.not.i38, label %lean_inc.exit24, label %48

48:                                               ; preds = %47
  tail call void @lean_inc_ref_cold(ptr noundef nonnull %5) #8
  br label %lean_inc.exit24

lean_inc.exit24:                                  ; preds = %48, %47, %45, %42
  %49 = ptrtoint ptr %0 to i64
  %50 = and i64 %49, 1
  %.not43 = icmp eq i64 %50, 0
  br i1 %.not43, label %51, label %lean_dec.exit21

51:                                               ; preds = %lean_inc.exit24
  %52 = load i32, ptr %0, align 4, !tbaa !4
  %53 = icmp sgt i32 %52, 1
  br i1 %53, label %54, label %56, !prof !11

54:                                               ; preds = %51
  %55 = add nsw i32 %52, -1
  store i32 %55, ptr %0, align 4, !tbaa !4
  br label %lean_dec.exit21

56:                                               ; preds = %51
  %.not.i29 = icmp eq i32 %52, 0
  br i1 %.not.i29, label %lean_dec.exit21, label %57

57:                                               ; preds = %56
  tail call void @lean_dec_ref_cold(ptr noundef nonnull %0) #8
  br label %lean_dec.exit21

lean_dec.exit21:                                  ; preds = %57, %56, %54, %lean_inc.exit24
  %58 = getelementptr inbounds nuw i8, ptr %5, i64 16
  %59 = load ptr, ptr %58, align 8, !tbaa !9
  %60 = ptrtoint ptr %59 to i64
  %61 = and i64 %60, 1
  %.not44 = icmp eq i64 %61, 0
  br i1 %.not44, label %62, label %lean_inc.exit

62:                                               ; preds = %lean_dec.exit21
  %.val.i40 = load i32, ptr %59, align 4, !tbaa !4
  %63 = icmp sgt i32 %.val.i40, 0
  br i1 %63, label %64, label %66, !prof !11

64:                                               ; preds = %62
  %65 = add nuw i32 %.val.i40, 1
  store i32 %65, ptr %59, align 4, !tbaa !4
  br label %lean_inc.exit

66:                                               ; preds = %62
  %.not.i41 = icmp eq i32 %.val.i40, 0
  br i1 %.not.i41, label %lean_inc.exit, label %67

67:                                               ; preds = %66
  tail call void @lean_inc_ref_cold(ptr noundef nonnull %59) #8
  br label %lean_inc.exit

lean_inc.exit:                                    ; preds = %67, %66, %64, %lean_dec.exit21
  br i1 %.not45, label %68, label %lean_dec.exit

68:                                               ; preds = %lean_inc.exit
  %69 = load i32, ptr %5, align 4, !tbaa !4
  %70 = icmp sgt i32 %69, 1
  br i1 %70, label %71, label %73, !prof !11

71:                                               ; preds = %68
  %72 = add nsw i32 %69, -1
  store i32 %72, ptr %5, align 4, !tbaa !4
  br label %lean_dec.exit

73:                                               ; preds = %68
  %.not.i31 = icmp eq i32 %69, 0
  br i1 %.not.i31, label %lean_dec.exit, label %74

74:                                               ; preds = %73
  tail call void @lean_dec_ref_cold(ptr noundef nonnull %5) #8
  br label %lean_dec.exit

lean_dec.exit:                                    ; preds = %74, %73, %71, %lean_inc.exit
  %75 = tail call ptr @lean_apply_2(ptr noundef %59, ptr noundef nonnull inttoptr (i64 1 to ptr), ptr noundef nonnull inttoptr (i64 1 to ptr)) #8
  br label %76

76:                                               ; preds = %lean_dec.exit, %lean_dec.exit22
  %.0 = phi ptr [ %41, %lean_dec.exit22 ], [ %75, %lean_dec.exit ]
  ret ptr %.0
}